target datalayout = "e-m:e-p270:32:32-p271:32:32-p272:64:64-i64:64-i128:128-f80:128-n8:16:32:64-S128"
target triple = "x86_64-pc-linux-gnu"

%struct.archive_rb_tree = type { ptr, ptr }
%struct.archive_rb_tree_ops = type { ptr, ptr }
%struct.archive_rb_node = type { [2 x ptr], i64 }

; Function Attrs: nounwind uwtable
define dso_local ptr @__archive_rb_tree_find_node_geq(ptr noundef %0, ptr noundef %1) #0 {
  %3 = alloca ptr, align 8
  %4 = alloca ptr, align 8
  %5 = alloca ptr, align 8
  %6 = alloca ptr, align 8
  %7 = alloca ptr, align 8
  %8 = alloca ptr, align 8
  %9 = alloca i32, align 4
  store ptr %0, ptr %4, align 8
  store ptr %1, ptr %5, align 8
  %10 = load ptr, ptr %4, align 8
  %11 = getelementptr inbounds %struct.archive_rb_tree, ptr %10, i32 0, i32 1
  %12 = load ptr, ptr %11, align 8
  %13 = getelementptr inbounds %struct.archive_rb_tree_ops, ptr %12, i32 0, i32 1
  %14 = load ptr, ptr %13, align 8
  store ptr %14, ptr %6, align 8
  %15 = load ptr, ptr %4, align 8
  %16 = getelementptr inbounds %struct.archive_rb_tree, ptr %15, i32 0, i32 0
  %17 = load ptr, ptr %16, align 8
  store ptr %17, ptr %7, align 8
  store ptr null, ptr %8, align 8
  br label %18

18:                                               ; preds = %36, %2
  %19 = load ptr, ptr %7, align 8
  %20 = icmp eq ptr %19, null
  %21 = xor i1 %20, true
  br i1 %21, label %22, label %45

22:                                               ; preds = %18
  %23 = load ptr, ptr %6, align 8
  %24 = load ptr, ptr %7, align 8
  %25 = load ptr, ptr %5, align 8
  %26 = call i32 %23(ptr noundef %24, ptr noundef %25)
  store i32 %26, ptr %9, align 4
  %27 = load i32, ptr %9, align 4
  %28 = icmp eq i32 %27, 0
  br i1 %28, label %29, label %31

29:                                               ; preds = %22
  %30 = load ptr, ptr %7, align 8
  store ptr %30, ptr %3, align 8
  br label %47

31:                                               ; preds = %22
  %32 = load i32, ptr %9, align 4
  %33 = icmp slt i32 %32, 0
  br i1 %33, label %34, label %36

34:                                               ; preds = %31
  %35 = load ptr, ptr %7, align 8
  store ptr %35, ptr %8, align 8
  br label %36

36:                                               ; preds = %34, %31
  %37 = load ptr, ptr %7, align 8
  %38 = getelementptr inbounds %struct.archive_rb_node, ptr %37, i32 0, i32 0
  %39 = load i32, ptr %9, align 4
  %40 = icmp sgt i32 %39, 0
  %41 = zext i1 %40 to i32
  %42 = sext i32 %41 to i64
  %43 = getelementptr inbounds [2 x ptr], ptr %38, i64 0, i64 %42
  %44 = load ptr, ptr %43, align 8
  store ptr %44, ptr %7, align 8
  br label %18, !llvm.loop !7

45:                                               ; preds = %18
  %46 = load ptr, ptr %8, align 8
  store ptr %46, ptr %3, align 8
  br label %47

47:                                               ; preds = %45, %29
  %48 = load ptr, ptr %3, align 8
  ret ptr %48
}